; ModuleID = '38/922.c'
source_filename = "38/922.c"
target datalayout = "e-m:e-p270:32:32-p271:32:32-p272:64:64-i64:64-f80:128-n8:16:32:64-S128"
target triple = "x86_64-pc-linux-gnu"

@.str = private unnamed_addr constant [3 x i8] c"%d\00", align 1
@.str.1 = private unnamed_addr constant [4 x i8] c"%lf\00", align 1
@.str.2 = private unnamed_addr constant [7 x i8] c"%.5lf\0A\00", align 1

; Function Attrs: noinline nounwind uwtable
define dso_local i32 @main() #0 {
  %1 = alloca i32, align 4
  %2 = alloca i32, align 4
  %3 = alloca i32, align 4
  %4 = alloca i32, align 4
  %5 = alloca i32, align 4
  %6 = alloca [100 x [1000 x double]], align 16
  %7 = alloca double, align 8
  %8 = alloca [100 x double], align 16
  %9 = alloca double*, align 8
  %10 = alloca double*, align 8
  store i32 0, i32* %1, align 4
  %11 = bitcast [100 x double]* %8 to i8*
  call void @llvm.memset.p0i8.i64(i8* align 16 %11, i8 0, i64 800, i1 false)
  %12 = getelementptr inbounds [100 x [1000 x double]], [100 x [1000 x double]]* %6, i64 0, i64 0
  %13 = getelementptr inbounds [1000 x double], [1000 x double]* %12, i64 0, i64 0
  store double* %13, double** %9, align 8
  %14 = getelementptr inbounds [100 x double], [100 x double]* %8, i64 0, i64 0
  store double* %14, double** %10, align 8
  %15 = call i32 (i8*, ...) @__isoc99_scanf(i8* getelementptr inbounds ([3 x i8], [3 x i8]* @.str, i64 0, i64 0), i32* %2)
  store i32 0, i32* %4, align 4
  br label %16

16:                                               ; preds = %124, %0
  %17 = load i32, i32* %4, align 4
  %18 = load i32, i32* %2, align 4
  %19 = icmp slt i32 %17, %18
  br i1 %19, label %20, label %127

20:                                               ; preds = %16
  store double 0.000000e+00, double* %7, align 8
  %21 = call i32 (i8*, ...) @__isoc99_scanf(i8* getelementptr inbounds ([3 x i8], [3 x i8]* @.str, i64 0, i64 0), i32* %3)
  store i32 0, i32* %5, align 4
  br label %22

22:                                               ; preds = %35, %20
  %23 = load i32, i32* %5, align 4
  %24 = load i32, i32* %3, align 4
  %25 = icmp slt i32 %23, %24
  br i1 %25, label %26, label %38

26:                                               ; preds = %22
  %27 = load double*, double** %9, align 8
  %28 = load i32, i32* %4, align 4
  %29 = sext i32 %28 to i64
  %30 = getelementptr inbounds double, double* %27, i64 %29
  %31 = load i32, i32* %5, align 4
  %32 = sext i32 %31 to i64
  %33 = getelementptr inbounds double, double* %30, i64 %32
  %34 = call i32 (i8*, ...) @__isoc99_scanf(i8* getelementptr inbounds ([4 x i8], [4 x i8]* @.str.1, i64 0, i64 0), double* %33)
  br label %35

35:                                               ; preds = %26
  %36 = load i32, i32* %5, align 4
  %37 = add nsw i32 %36, 1
  store i32 %37, i32* %5, align 4
  br label %22

38:                                               ; preds = %22
  store i32 0, i32* %5, align 4
  br label %39

39:                                               ; preds = %54, %38
  %40 = load i32, i32* %5, align 4
  %41 = load i32, i32* %3, align 4
  %42 = icmp slt i32 %40, %41
  br i1 %42, label %43, label %57

43:                                               ; preds = %39
  %44 = load double, double* %7, align 8
  %45 = load double*, double** %9, align 8
  %46 = load i32, i32* %4, align 4
  %47 = sext i32 %46 to i64
  %48 = getelementptr inbounds double, double* %45, i64 %47
  %49 = load i32, i32* %5, align 4
  %50 = sext i32 %49 to i64
  %51 = getelementptr inbounds double, double* %48, i64 %50
  %52 = load double, double* %51, align 8
  %53 = fadd double %44, %52
  store double %53, double* %7, align 8
  br label %54

54:                                               ; preds = %43
  %55 = load i32, i32* %5, align 4
  %56 = add nsw i32 %55, 1
  store i32 %56, i32* %5, align 4
  br label %39

57:                                               ; preds = %39
  %58 = load double, double* %7, align 8
  %59 = load i32, i32* %3, align 4
  %60 = sitofp i32 %59 to double
  %61 = fdiv double %58, %60
  store double %61, double* %7, align 8
  store i32 0, i32* %5, align 4
  br label %62

62:                                               ; preds = %98, %57
  %63 = load i32, i32* %5, align 4
  %64 = load i32, i32* %3, align 4
  %65 = icmp slt i32 %63, %64
  br i1 %65, label %66, label %101

66:                                               ; preds = %62
  %67 = load double*, double** %10, align 8
  %68 = load i32, i32* %4, align 4
  %69 = sext i32 %68 to i64
  %70 = getelementptr inbounds double, double* %67, i64 %69
  %71 = load double, double* %70, align 8
  %72 = load double*, double** %9, align 8
  %73 = load i32, i32* %4, align 4
  %74 = sext i32 %73 to i64
  %75 = getelementptr inbounds double, double* %72, i64 %74
  %76 = load i32, i32* %5, align 4
  %77 = sext i32 %76 to i64
  %78 = getelementptr inbounds double, double* %75, i64 %77
  %79 = load double, double* %78, align 8
  %80 = load double, double* %7, align 8
  %81 = fsub double %79, %80
  %82 = load double*, double** %9, align 8
  %83 = load i32, i32* %4, align 4
  %84 = sext i32 %83 to i64
  %85 = getelementptr inbounds double, double* %82, i64 %84
  %86 = load i32, i32* %5, align 4
  %87 = sext i32 %86 to i64
  %88 = getelementptr inbounds double, double* %85, i64 %87
  %89 = load double, double* %88, align 8
  %90 = load double, double* %7, align 8
  %91 = fsub double %89, %90
  %92 = fmul double %81, %91
  %93 = fadd double %71, %92
  %94 = load double*, double** %10, align 8
  %95 = load i32, i32* %4, align 4
  %96 = sext i32 %95 to i64
  %97 = getelementptr inbounds double, double* %94, i64 %96
  store double %93, double* %97, align 8
  br label %98

98:                                               ; preds = %66
  %99 = load i32, i32* %5, align 4
  %100 = add nsw i32 %99, 1
  store i32 %100, i32* %5, align 4
  br label %62

101:                                              ; preds = %62
  %102 = load double*, double** %10, align 8
  %103 = load i32, i32* %4, align 4
  %104 = sext i32 %103 to i64
  %105 = getelementptr inbounds double, double* %102, i64 %104
  %106 = load double, double* %105, align 8
  %107 = load i32, i32* %3, align 4
  %108 = sitofp i32 %107 to double
  %109 = fdiv double %106, %108
  %110 = load double*, double** %10, align 8
  %111 = load i32, i32* %4, align 4
  %112 = sext i32 %111 to i64
  %113 = getelementptr inbounds double, double* %110, i64 %112
  store double %109, double* %113, align 8
  %114 = load double*, double** %10, align 8
  %115 = load i32, i32* %4, align 4
  %116 = sext i32 %115 to i64
  %117 = getelementptr inbounds double, double* %114, i64 %116
  %118 = load double, double* %117, align 8
  %119 = call double @sqrt(double %118) #4
  %120 = load double*, double** %10, align 8
  %121 = load i32, i32* %4, align 4
  %122 = sext i32 %121 to i64
  %123 = getelementptr inbounds double, double* %120, i64 %122
  store double %119, double* %123, align 8
  br label %124

124:                                              ; preds = %101
  %125 = load i32, i32* %4, align 4
  %126 = add nsw i32 %125, 1
  store i32 %126, i32* %4, align 4
  br label %16

127:                                              ; preds = %16
  store i32 0, i32* %4, align 4
  br label %128

128:                                              ; preds = %139, %127
  %129 = load i32, i32* %4, align 4
  %130 = load i32, i32* %2, align 4
  %131 = icmp slt i32 %129, %130
  br i1 %131, label %132, label %142

132:                                              ; preds = %128
  %133 = load double*, double** %10, align 8
  %134 = load i32, i32* %4, align 4
  %135 = sext i32 %134 to i64
  %136 = getelementptr inbounds double, double* %133, i64 %135
  %137 = load double, double* %136, align 8
  %138 = call i32 (i8*, ...) @printf(i8* getelementptr inbounds ([7 x i8], [7 x i8]* @.str.2, i64 0, i64 0), double %137)
  br label %139

139:                                              ; preds = %132
  %140 = load i32, i32* %4, align 4
  %141 = add nsw i32 %140, 1
  store i32 %141, i32* %4, align 4
  br label %128

142:                                              ; preds = %128
  ret i32 0
}

; Function Attrs: argmemonly nounwind willreturn
declare void @llvm.memset.p0i8.i64(i8* nocapture writeonly, i8, i64, i1 immarg) #1

declare dso_local i32 @__isoc99_scanf(i8*, ...) #2

; Function Attrs: nounwind
declare dso_local double @sqrt(double) #3

declare dso_local i32 @printf(i8*, ...) #2


!llvm.module.flags = !{!0}
!llvm.ident = !{!1}

!0 = !{i32 1, !"wchar_size", i32 4}
!1 = !{!"clang version 10.0.0-4ubuntu1 "}
